Certificate:
    Data:
        Version: 3 (0x2)
        Serial Number:
            62:a9:88:07:1e:ed:72:ae:f7:7e:75:50:fd:71:7f:fc
    Signature Algorithm: sha256WithRSAEncryption
        Issuer: CN=remote.themel.io
        Validity
            Not Before: Feb  8 14:52:36 2021 GMT
            Not After : Jan 24 14:52:36 2024 GMT
        Subject: CN=swalls
        Subject Public Key Info:
            Public Key Algorithm: rsaEncryption
                Public-Key: (2048 bit)
                Modulus:
                    00:c3:46:11:b5:a9:b6:e8:3e:41:2c:e9:3d:91:6c:
                    c1:62:ff:90:8a:b8:e8:e1:86:5f:aa:9a:3f:c3:f6:
                    15:e0:b1:01:1f:d7:bd:33:92:68:9b:f0:5d:63:f1:
                    cf:e6:70:97:50:15:9a:7a:82:b3:b4:02:4d:1d:a2:
                    0b:35:57:f1:11:34:39:52:17:30:0d:ad:d6:39:14:
                    04:fe:00:34:f6:71:5f:dd:eb:9a:ee:b8:5d:b2:a8:
                    22:56:d5:88:6e:ac:96:01:6c:6d:43:ec:d7:92:f5:
                    7c:e2:ab:05:18:47:9b:a4:3c:31:79:35:46:5f:99:
                    e7:44:af:9d:a1:98:c8:38:ff:e7:4b:62:51:bd:a6:
                    70:09:51:4c:e1:d5:4a:68:5c:c2:fa:da:e1:25:42:
                    07:d9:4d:09:f3:e8:42:58:0f:5e:57:5b:67:92:a7:
                    97:85:4b:69:c1:2a:44:67:27:77:3e:38:dc:28:ff:
                    02:df:2b:7c:f5:f4:3f:84:8c:3e:a9:6d:77:37:a1:
                    7a:0e:e8:82:a2:f6:86:21:c5:6d:54:11:3d:20:23:
                    74:41:1b:13:4e:cd:34:4c:eb:de:99:8e:16:d3:af:
                    cf:b3:b8:70:0e:b3:6e:63:98:88:b1:4d:19:ab:ca:
                    57:da:7d:9b:43:22:57:97:ea:6b:6b:dd:38:ff:ff:
                    6a:c5
                Exponent: 65537 (0x10001)
        X509v3 extensions:
            X509v3 Basic Constraints: 
                CA:FALSE
            X509v3 Subject Key Identifier: 
                B5:15:29:A9:63:94:4C:F6:B4:06:FD:EB:97:E2:B7:01:44:B5:4C:4A
            X509v3 Authority Key Identifier: 
                keyid:6F:5F:CE:52:B2:F6:2C:DC:2B:4C:79:BB:D0:E8:A6:59:2F:BE:14:A8
                DirName:/CN=remote.themel.io
                serial:D7:DD:E8:B4:AE:61:7F:4D

            X509v3 Extended Key Usage: 
                TLS Web Client Authentication
            X509v3 Key Usage: 
                Digital Signature
    Signature Algorithm: sha256WithRSAEncryption
         5c:3a:a1:55:12:b9:6f:40:c5:f1:fd:6e:3b:21:2b:65:ed:78:
         e9:eb:3d:dd:b9:80:91:3f:23:c2:ee:22:10:d7:23:09:f0:89:
         05:c3:56:29:15:d3:94:36:34:ac:b8:e5:36:6d:2b:64:b1:3f:
         b6:cd:1e:c9:c9:03:3b:86:08:9e:5a:e5:0f:90:32:53:da:33:
         9a:06:24:85:43:a0:92:21:3a:72:5a:00:31:4c:fd:dd:dc:83:
         62:a6:8d:f0:8d:d8:e2:92:61:05:6b:00:7a:db:06:87:85:eb:
         43:a4:1d:0b:d0:fa:e2:3d:ce:8b:6e:5c:a6:1f:40:b6:d6:33:
         ed:94:f7:be:21:01:c5:33:a5:4d:7b:c0:73:59:05:98:d2:bd:
         a3:64:5c:98:ed:9c:4e:36:ae:61:4e:a8:16:93:75:81:2d:5a:
         9e:51:82:a0:2a:58:9e:e9:1f:a3:e4:ab:ef:dc:54:ec:f4:b1:
         41:69:3c:1c:46:19:69:dd:9f:11:1b:a8:74:07:ad:23:fe:c4:
         c1:b2:fd:ee:07:29:d6:96:4d:aa:5d:08:99:b3:04:c1:42:04:
         96:4d:e4:94:65:7d:95:df:bf:e6:06:e5:cf:b4:3e:a5:a6:ed:
         20:eb:01:31:7f:75:fc:42:ba:eb:21:67:ba:3b:f9:96:38:c2:
         8b:2b:d3:9b
-----BEGIN CERTIFICATE-----
MIIDUzCCAjugAwIBAgIQYqmIBx7tcq73fnVQ/XF//DANBgkqhkiG9w0BAQsFADAb
MRkwFwYDVQQDDBByZW1vdGUudGhlbWVsLmlvMB4XDTIxMDIwODE0NTIzNloXDTI0
MDEyNDE0NTIzNlowETEPMA0GA1UEAwwGc3dhbGxzMIIBIjANBgkqhkiG9w0BAQEF
AAOCAQ8AMIIBCgKCAQEAw0YRtam26D5BLOk9kWzBYv+Qirjo4YZfqpo/w/YV4LEB
H9e9M5Jom/BdY/HP5nCXUBWaeoKztAJNHaILNVfxETQ5UhcwDa3WORQE/gA09nFf
3eua7rhdsqgiVtWIbqyWAWxtQ+zXkvV84qsFGEebpDwxeTVGX5nnRK+doZjIOP/n
S2JRvaZwCVFM4dVKaFzC+trhJUIH2U0J8+hCWA9eV1tnkqeXhUtpwSpEZyd3Pjjc
KP8C3yt89fQ/hIw+qW13N6F6DuiCovaGIcVtVBE9ICN0QRsTTs00TOvemY4W06/P
s7hwDrNuY5iIsU0Zq8pX2n2bQyJXl+pra904//9qxQIDAQABo4GcMIGZMAkGA1Ud
EwQCMAAwHQYDVR0OBBYEFLUVKaljlEz2tAb965fitwFEtUxKMEsGA1UdIwREMEKA
FG9fzlKy9izcK0x5u9DoplkvvhSooR+kHTAbMRkwFwYDVQQDDBByZW1vdGUudGhl
bWVsLmlvggkA193otK5hf00wEwYDVR0lBAwwCgYIKwYBBQUHAwIwCwYDVR0PBAQD
AgeAMA0GCSqGSIb3DQEBCwUAA4IBAQBcOqFVErlvQMXx/W47IStl7Xjp6z3duYCR
PyPC7iIQ1yMJ8IkFw1YpFdOUNjSsuOU2bStksT+2zR7JyQM7hgieWuUPkDJT2jOa
BiSFQ6CSITpyWgAxTP3d3INipo3wjdjikmEFawB62waHhetDpB0L0PriPc6Lblym
H0C21jPtlPe+IQHFM6VNe8BzWQWY0r2jZFyY7ZxONq5hTqgWk3WBLVqeUYKgKlie
6R+j5Kvv3FTs9LFBaTwcRhlp3Z8RG6h0B60j/sTBsv3uBynWlk2qXQiZswTBQgSW
TeSUZX2V37/mBuXPtD6lpu0g6wExf3X8QrrrIWe6O/mWOMKLK9Ob
-----END CERTIFICATE-----
